target datalayout = "e-m:e-p270:32:32-p271:32:32-p272:64:64-i64:64-i128:128-f80:128-n8:16:32:64-S128"
target triple = "x86_64-unknown-linux-gnu"

%struct.UEnumeration = type { ptr, ptr, ptr, ptr, ptr, ptr, ptr }

@.str.2 = private unnamed_addr constant [17 x i8] c"supplementalData\00", align 1
@.str.3 = private unnamed_addr constant [23 x i8] c"calendarPreferenceData\00", align 1
@.str.4 = private unnamed_addr constant [4 x i8] c"001\00", align 1
@_ZL20defaultKeywordValues = internal constant %struct.UEnumeration { ptr null, ptr null, ptr @ulist_close_keyword_values_iterator_75, ptr @ulist_count_keyword_values_75, ptr @uenum_unextDefault_75, ptr @ulist_next_keyword_value_75, ptr @ulist_reset_keyword_values_iterator_75 }, align 8

; Function Attrs: mustprogress nounwind uwtable
define internal noundef signext i8 @_ZL9U_FAILURE10UErrorCode(i32 noundef %code) #0 {
entry:
  %code.addr = alloca i32, align 4
  store i32 %code, ptr %code.addr, align 4
  %0 = load i32, ptr %code.addr, align 4
  %cmp = icmp sgt i32 %0, 0
  %conv = zext i1 %cmp to i8
  ret i8 %conv
}

; Function Attrs: mustprogress nounwind uwtable
define internal noundef signext i8 @_ZL9U_SUCCESS10UErrorCode(i32 noundef %code) #0 {
entry:
  %code.addr = alloca i32, align 4
  store i32 %code, ptr %code.addr, align 4
  %0 = load i32, ptr %code.addr, align 4
  %cmp = icmp sle i32 %0, 0
  %conv = zext i1 %cmp to i8
  ret i8 %conv
}

; Function Attrs: mustprogress uwtable
define ptr @ucal_getKeywordValuesForLocale_75(ptr noundef %0, ptr noundef %locale, i8 noundef signext %commonlyUsed, ptr noundef %status) #1 {
entry:
  %retval = alloca ptr, align 8
  %.addr = alloca ptr, align 8
  %locale.addr = alloca ptr, align 8
  %commonlyUsed.addr = alloca i8, align 1
  %status.addr = alloca ptr, align 8
  %prefRegion = alloca [4 x i8], align 1
  %rb = alloca ptr, align 8
  %order = alloca ptr, align 8
  %values = alloca ptr, align 8
  %i = alloca i32, align 4
  %len = alloca i32, align 4
  %type = alloca ptr, align 8
  %caltype = alloca ptr, align 8
  %i29 = alloca i32, align 4
  %en = alloca ptr, align 8
  store ptr %0, ptr %.addr, align 8
  store ptr %locale, ptr %locale.addr, align 8
  store i8 %commonlyUsed, ptr %commonlyUsed.addr, align 1
  store ptr %status, ptr %status.addr, align 8
  %1 = load ptr, ptr %locale.addr, align 8
  %arraydecay = getelementptr inbounds [4 x i8], ptr %prefRegion, i64 0, i64 0
  %2 = load ptr, ptr %status.addr, align 8
  %call = call i32 @ulocimp_getRegionForSupplementalData_75(ptr noundef %1, i8 noundef signext 1, ptr noundef %arraydecay, i32 noundef 4, ptr noundef %2)
  %3 = load ptr, ptr %status.addr, align 8
  %call1 = call ptr @ures_openDirect_75(ptr noundef null, ptr noundef @.str.2, ptr noundef %3)
  store ptr %call1, ptr %rb, align 8
  %4 = load ptr, ptr %rb, align 8
  %5 = load ptr, ptr %rb, align 8
  %6 = load ptr, ptr %status.addr, align 8
  %call2 = call ptr @ures_getByKey_75(ptr noundef %4, ptr noundef @.str.3, ptr noundef %5, ptr noundef %6)
  %7 = load ptr, ptr %rb, align 8
  %arraydecay3 = getelementptr inbounds [4 x i8], ptr %prefRegion, i64 0, i64 0
  %8 = load ptr, ptr %status.addr, align 8
  %call4 = call ptr @ures_getByKey_75(ptr noundef %7, ptr noundef %arraydecay3, ptr noundef null, ptr noundef %8)
  store ptr %call4, ptr %order, align 8
  %9 = load ptr, ptr %status.addr, align 8
  %10 = load i32, ptr %9, align 4
  %cmp = icmp eq i32 %10, 2
  br i1 %cmp, label %land.lhs.true, label %if.end

land.lhs.true:                                    ; preds = %entry
  %11 = load ptr, ptr %rb, align 8
  %cmp5 = icmp ne ptr %11, null
  br i1 %cmp5, label %if.then, label %if.end

if.then:                                          ; preds = %land.lhs.true
  %12 = load ptr, ptr %status.addr, align 8
  store i32 0, ptr %12, align 4
  %13 = load ptr, ptr %rb, align 8
  %14 = load ptr, ptr %status.addr, align 8
  %call6 = call ptr @ures_getByKey_75(ptr noundef %13, ptr noundef @.str.4, ptr noundef null, ptr noundef %14)
  store ptr %call6, ptr %order, align 8
  br label %if.end

if.end:                                           ; preds = %if.then, %land.lhs.true, %entry
  store ptr null, ptr %values, align 8
  %15 = load ptr, ptr %status.addr, align 8
  %16 = load i32, ptr %15, align 4
  %call7 = call noundef signext i8 @_ZL9U_SUCCESS10UErrorCode(i32 noundef %16)
  %tobool = icmp ne i8 %call7, 0
  br i1 %tobool, label %if.then8, label %if.end58

if.then8:                                         ; preds = %if.end
  %17 = load ptr, ptr %status.addr, align 8
  %call9 = call ptr @ulist_createEmptyList_75(ptr noundef %17)
  store ptr %call9, ptr %values, align 8
  %18 = load ptr, ptr %status.addr, align 8
  %19 = load i32, ptr %18, align 4
  %call10 = call noundef signext i8 @_ZL9U_SUCCESS10UErrorCode(i32 noundef %19)
  %tobool11 = icmp ne i8 %call10, 0
  br i1 %tobool11, label %if.then12, label %if.end57

if.then12:                                        ; preds = %if.then8
  store i32 0, ptr %i, align 4
  br label %for.cond

for.cond:                                         ; preds = %for.inc, %if.then12
  %20 = load i32, ptr %i, align 4
  %21 = load ptr, ptr %order, align 8
  %call13 = call i32 @ures_getSize_75(ptr noundef %21)
  %cmp14 = icmp slt i32 %20, %call13
  br i1 %cmp14, label %for.body, label %for.end

for.body:                                         ; preds = %for.cond
  %22 = load ptr, ptr %order, align 8
  %23 = load i32, ptr %i, align 4
  %24 = load ptr, ptr %status.addr, align 8
  %call15 = call ptr @ures_getStringByIndex_75(ptr noundef %22, i32 noundef %23, ptr noundef %len, ptr noundef %24)
  store ptr %call15, ptr %type, align 8
  %25 = load i32, ptr %len, align 4
  %add = add nsw i32 %25, 1
  %conv = sext i32 %add to i64
  %call16 = call noalias ptr @uprv_malloc_75(i64 noundef %conv) #10
  store ptr %call16, ptr %caltype, align 8
  %26 = load ptr, ptr %caltype, align 8
  %cmp17 = icmp eq ptr %26, null
  br i1 %cmp17, label %if.then18, label %if.end19

if.then18:                                        ; preds = %for.body
  %27 = load ptr, ptr %status.addr, align 8
  store i32 7, ptr %27, align 4
  br label %for.end

if.end19:                                         ; preds = %for.body
  %28 = load ptr, ptr %type, align 8
  %29 = load ptr, ptr %caltype, align 8
  %30 = load i32, ptr %len, align 4
  call void @u_UCharsToChars_75(ptr noundef %28, ptr noundef %29, i32 noundef %30)
  %31 = load ptr, ptr %caltype, align 8
  %32 = load i32, ptr %len, align 4
  %idx.ext = sext i32 %32 to i64
  %add.ptr = getelementptr inbounds i8, ptr %31, i64 %idx.ext
  store i8 0, ptr %add.ptr, align 1
  %33 = load ptr, ptr %values, align 8
  %34 = load ptr, ptr %caltype, align 8
  %35 = load ptr, ptr %status.addr, align 8
  call void @ulist_addItemEndList_75(ptr noundef %33, ptr noundef %34, i8 noundef signext 1, ptr noundef %35)
  %36 = load ptr, ptr %status.addr, align 8
  %37 = load i32, ptr %36, align 4
  %call20 = call noundef signext i8 @_ZL9U_FAILURE10UErrorCode(i32 noundef %37)
  %tobool21 = icmp ne i8 %call20, 0
  br i1 %tobool21, label %if.then22, label %if.end23

if.then22:                                        ; preds = %if.end19
  br label %for.end

if.end23:                                         ; preds = %if.end19
  br label %for.inc

for.inc:                                          ; preds = %if.end23
  %38 = load i32, ptr %i, align 4
  %inc = add nsw i32 %38, 1
  store i32 %inc, ptr %i, align 4
  br label %for.cond, !llvm.loop !7

for.end:                                          ; preds = %if.then22, %if.then18, %for.cond
  %39 = load ptr, ptr %status.addr, align 8
  %40 = load i32, ptr %39, align 4
  %call24 = call noundef signext i8 @_ZL9U_SUCCESS10UErrorCode(i32 noundef %40)
  %tobool25 = icmp ne i8 %call24, 0
  br i1 %tobool25, label %land.lhs.true26, label %if.end52

land.lhs.true26:                                  ; preds = %for.end
  %41 = load i8, ptr %commonlyUsed.addr, align 1
  %tobool27 = icmp ne i8 %41, 0
  br i1 %tobool27, label %if.end52, label %if.then28

if.then28:                                        ; preds = %land.lhs.true26
  store i32 0, ptr %i29, align 4
  br label %for.cond30

for.cond30:                                       ; preds = %for.inc49, %if.then28
  %42 = load i32, ptr %i29, align 4
  %idxprom = sext i32 %42 to i64
  %arrayidx = getelementptr inbounds [19 x ptr], ptr @_ZL9CAL_TYPES, i64 0, i64 %idxprom
  %43 = load ptr, ptr %arrayidx, align 8
  %cmp31 = icmp ne ptr %43, null
  br i1 %cmp31, label %for.body32, label %for.end51

for.body32:                                       ; preds = %for.cond30
  %44 = load ptr, ptr %values, align 8
  %45 = load i32, ptr %i29, align 4
  %idxprom33 = sext i32 %45 to i64
  %arrayidx34 = getelementptr inbounds [19 x ptr], ptr @_ZL9CAL_TYPES, i64 0, i64 %idxprom33
  %46 = load ptr, ptr %arrayidx34, align 8
  %47 = load i32, ptr %i29, align 4
  %idxprom35 = sext i32 %47 to i64
  %arrayidx36 = getelementptr inbounds [19 x ptr], ptr @_ZL9CAL_TYPES, i64 0, i64 %idxprom35
  %48 = load ptr, ptr %arrayidx36, align 8
  %call37 = call i64 @strlen(ptr noundef %48) #7
  %conv38 = trunc i64 %call37 to i32
  %call39 = call signext i8 @ulist_containsString_75(ptr noundef %44, ptr noundef %46, i32 noundef %conv38)
  %tobool40 = icmp ne i8 %call39, 0
  br i1 %tobool40, label %if.end48, label %if.then41

if.then41:                                        ; preds = %for.body32
  %49 = load ptr, ptr %values, align 8
  %50 = load i32, ptr %i29, align 4
  %idxprom42 = sext i32 %50 to i64
  %arrayidx43 = getelementptr inbounds [19 x ptr], ptr @_ZL9CAL_TYPES, i64 0, i64 %idxprom42
  %51 = load ptr, ptr %arrayidx43, align 8
  %52 = load ptr, ptr %status.addr, align 8
  call void @ulist_addItemEndList_75(ptr noundef %49, ptr noundef %51, i8 noundef signext 0, ptr noundef %52)
  %53 = load ptr, ptr %status.addr, align 8
  %54 = load i32, ptr %53, align 4
  %call44 = call noundef signext i8 @_ZL9U_FAILURE10UErrorCode(i32 noundef %54)
  %tobool45 = icmp ne i8 %call44, 0
  br i1 %tobool45, label %if.then46, label %if.end47

if.then46:                                        ; preds = %if.then41
  br label %for.end51

if.end47:                                         ; preds = %if.then41
  br label %if.end48

if.end48:                                         ; preds = %if.end47, %for.body32
  br label %for.inc49

for.inc49:                                        ; preds = %if.end48
  %55 = load i32, ptr %i29, align 4
  %inc50 = add nsw i32 %55, 1
  store i32 %inc50, ptr %i29, align 4
  br label %for.cond30, !llvm.loop !8

for.end51:                                        ; preds = %if.then46, %for.cond30
  br label %if.end52

if.end52:                                         ; preds = %for.end51, %land.lhs.true26, %for.end
  %56 = load ptr, ptr %status.addr, align 8
  %57 = load i32, ptr %56, align 4
  %call53 = call noundef signext i8 @_ZL9U_FAILURE10UErrorCode(i32 noundef %57)
  %tobool54 = icmp ne i8 %call53, 0
  br i1 %tobool54, label %if.then55, label %if.end56

if.then55:                                        ; preds = %if.end52
  %58 = load ptr, ptr %values, align 8
  call void @ulist_deleteList_75(ptr noundef %58)
  store ptr null, ptr %values, align 8
  br label %if.end56

if.end56:                                         ; preds = %if.then55, %if.end52
  br label %if.end57

if.end57:                                         ; preds = %if.end56, %if.then8
  br label %if.end58

if.end58:                                         ; preds = %if.end57, %if.end
  %59 = load ptr, ptr %order, align 8
  call void @ures_close_75(ptr noundef %59)
  %60 = load ptr, ptr %rb, align 8
  call void @ures_close_75(ptr noundef %60)
  %61 = load ptr, ptr %status.addr, align 8
  %62 = load i32, ptr %61, align 4
  %call59 = call noundef signext i8 @_ZL9U_FAILURE10UErrorCode(i32 noundef %62)
  %tobool60 = icmp ne i8 %call59, 0
  br i1 %tobool60, label %if.then62, label %lor.lhs.false

lor.lhs.false:                                    ; preds = %if.end58
  %63 = load ptr, ptr %values, align 8
  %cmp61 = icmp eq ptr %63, null
  br i1 %cmp61, label %if.then62, label %if.end63

if.then62:                                        ; preds = %lor.lhs.false, %if.end58
  store ptr null, ptr %retval, align 8
  br label %return

if.end63:                                         ; preds = %lor.lhs.false
  %call64 = call noalias ptr @uprv_malloc_75(i64 noundef 56) #10
  store ptr %call64, ptr %en, align 8
  %64 = load ptr, ptr %en, align 8
  %cmp65 = icmp eq ptr %64, null
  br i1 %cmp65, label %if.then66, label %if.end67

if.then66:                                        ; preds = %if.end63
  %65 = load ptr, ptr %status.addr, align 8
  store i32 7, ptr %65, align 4
  %66 = load ptr, ptr %values, align 8
  call void @ulist_deleteList_75(ptr noundef %66)
  store ptr null, ptr %retval, align 8
  br label %return

if.end67:                                         ; preds = %if.end63
  %67 = load ptr, ptr %values, align 8
  call void @ulist_resetList_75(ptr noundef %67)
  %68 = load ptr, ptr %en, align 8
  call void @llvm.memcpy.p0.p0.i64(ptr align 8 %68, ptr align 8 @_ZL20defaultKeywordValues, i64 56, i1 false)
  %69 = load ptr, ptr %values, align 8
  %70 = load ptr, ptr %en, align 8
  %context = getelementptr inbounds %struct.UEnumeration, ptr %70, i32 0, i32 1
  store ptr %69, ptr %context, align 8
  %71 = load ptr, ptr %en, align 8
  store ptr %71, ptr %retval, align 8
  br label %return

return:                                           ; preds = %if.end67, %if.then66, %if.then62
  %72 = load ptr, ptr %retval, align 8
  ret ptr %72
}