; Function Attrs: mustprogress uwtable
define noalias noundef ptr @ucal_getKeywordValuesForLocale_75(ptr nocapture noundef readnone %0, ptr noundef %locale, i8 noundef signext %commonlyUsed, ptr noundef %status) local_unnamed_addr #1 {
entry:
  %prefRegion = alloca [4 x i8], align 1
  %len = alloca i32, align 4
  %call = call i32 @ulocimp_getRegionForSupplementalData_75(ptr noundef %locale, i8 noundef signext 1, ptr noundef nonnull %prefRegion, i32 noundef 4, ptr noundef %status)
  %call1 = call ptr @ures_openDirect_75(ptr noundef null, ptr noundef nonnull @.str.2, ptr noundef %status)
  %call2 = call ptr @ures_getByKey_75(ptr noundef %call1, ptr noundef nonnull @.str.3, ptr noundef %call1, ptr noundef %status)
  %call4 = call ptr @ures_getByKey_75(ptr noundef %call1, ptr noundef nonnull %prefRegion, ptr noundef null, ptr noundef %status)
  %1 = load i32, ptr %status, align 4
  %cmp = icmp eq i32 %1, 2
  %cmp5 = icmp ne ptr %call1, null
  %or.cond = and i1 %cmp5, %cmp
  br i1 %or.cond, label %if.then, label %if.end

if.then:                                          ; preds = %entry
  store i32 0, ptr %status, align 4
  %call6 = call ptr @ures_getByKey_75(ptr noundef nonnull %call1, ptr noundef nonnull @.str.4, ptr noundef null, ptr noundef nonnull %status)
  %.pre = load i32, ptr %status, align 4
  br label %if.end

if.end:                                           ; preds = %if.then, %entry
  %2 = phi i32 [ %.pre, %if.then ], [ %1, %entry ]
  %order.0 = phi ptr [ %call6, %if.then ], [ %call4, %entry ]
  %cmp.i = icmp sgt i32 %2, 0
  br i1 %cmp.i, label %if.end58, label %if.then8

if.then8:                                         ; preds = %if.end
  %call9 = call ptr @ulist_createEmptyList_75(ptr noundef nonnull %status)
  %3 = load i32, ptr %status, align 4
  %cmp.i48 = icmp sgt i32 %3, 0
  br i1 %cmp.i48, label %if.end58, label %for.cond.preheader

for.cond.preheader:                               ; preds = %if.then8
  %call1360 = call i32 @ures_getSize_75(ptr noundef %order.0)
  %cmp1461 = icmp sgt i32 %call1360, 0
  br i1 %cmp1461, label %for.body, label %for.end

for.cond:                                         ; preds = %if.end19
  %inc = add nuw nsw i32 %i.062, 1
  %call13 = call i32 @ures_getSize_75(ptr noundef %order.0)
  %cmp14 = icmp slt i32 %inc, %call13
  br i1 %cmp14, label %for.body, label %for.end, !llvm.loop !8

for.body:                                         ; preds = %for.cond.preheader, %for.cond
  %i.062 = phi i32 [ %inc, %for.cond ], [ 0, %for.cond.preheader ]
  %call15 = call ptr @ures_getStringByIndex_75(ptr noundef %order.0, i32 noundef %i.062, ptr noundef nonnull %len, ptr noundef nonnull %status)
  %4 = load i32, ptr %len, align 4
  %add = add nsw i32 %4, 1
  %conv = sext i32 %add to i64
  %call16 = call noalias ptr @uprv_malloc_75(i64 noundef %conv) #12
  %cmp17 = icmp eq ptr %call16, null
  br i1 %cmp17, label %if.then18, label %if.end19

if.then18:                                        ; preds = %for.body
  store i32 7, ptr %status, align 4
  br label %for.end

if.end19:                                         ; preds = %for.body
  %5 = load i32, ptr %len, align 4
  call void @u_UCharsToChars_75(ptr noundef %call15, ptr noundef nonnull %call16, i32 noundef %5)
  %6 = load i32, ptr %len, align 4
  %idx.ext = sext i32 %6 to i64
  %add.ptr = getelementptr inbounds i8, ptr %call16, i64 %idx.ext
  store i8 0, ptr %add.ptr, align 1
  call void @ulist_addItemEndList_75(ptr noundef %call9, ptr noundef nonnull %call16, i8 noundef signext 1, ptr noundef nonnull %status)
  %7 = load i32, ptr %status, align 4
  %cmp.i50 = icmp slt i32 %7, 1
  br i1 %cmp.i50, label %for.cond, label %for.end

for.end:                                          ; preds = %for.cond, %if.end19, %for.cond.preheader, %if.then18
  %8 = load i32, ptr %status, align 4
  %cmp.i52 = icmp sgt i32 %8, 0
  %tobool27 = icmp ne i8 %commonlyUsed, 0
  %or.cond1 = or i1 %tobool27, %cmp.i52
  br i1 %or.cond1, label %if.end52, label %for.body32

for.body32:                                       ; preds = %for.end, %for.body32.backedge
  %i29.063 = phi i32 [ %i29.063.be, %for.body32.backedge ], [ 0, %for.end ]
  %idxprom = zext nneg i32 %i29.063 to i64
  %arrayidx = getelementptr inbounds [19 x ptr], ptr @_ZL9CAL_TYPES, i64 0, i64 %idxprom
  %9 = load ptr, ptr %arrayidx, align 8
  %call37 = call i64 @strlen(ptr noundef nonnull dereferenceable(1) %9) #14
  %conv38 = trunc i64 %call37 to i32
  %call39 = call signext i8 @ulist_containsString_75(ptr noundef %call9, ptr noundef %9, i32 noundef %conv38)
  %tobool40.not = icmp eq i8 %call39, 0
  br i1 %tobool40.not, label %if.then41, label %for.inc49

if.then41:                                        ; preds = %for.body32
  call void @ulist_addItemEndList_75(ptr noundef %call9, ptr noundef %9, i8 noundef signext 0, ptr noundef nonnull %status)
  %10 = load i32, ptr %status, align 4
  %cmp.i54 = icmp sgt i32 %10, 0
  %inc50 = add nuw nsw i32 %i29.063, 1
  %cmp31.not = icmp eq i32 %inc50, 18
  %or.cond64 = select i1 %cmp.i54, i1 true, i1 %cmp31.not
  br i1 %or.cond64, label %if.end52, label %for.body32.backedge

for.inc49:                                        ; preds = %for.body32
  %inc50.old = add nuw nsw i32 %i29.063, 1
  %cmp31.not.old = icmp eq i32 %inc50.old, 18
  br i1 %cmp31.not.old, label %for.inc49.if.end52.loopexit_crit_edge, label %for.body32.backedge

for.body32.backedge:                              ; preds = %for.inc49, %if.then41
  %i29.063.be = phi i32 [ %inc50.old, %for.inc49 ], [ %inc50, %if.then41 ]
  br label %for.body32, !llvm.loop !9

for.inc49.if.end52.loopexit_crit_edge:            ; preds = %for.inc49
  %.pre65.pre = load i32, ptr %status, align 4
  br label %if.end52

if.end52:                                         ; preds = %if.then41, %for.inc49.if.end52.loopexit_crit_edge, %for.end
  %11 = phi i32 [ %8, %for.end ], [ %.pre65.pre, %for.inc49.if.end52.loopexit_crit_edge ], [ %10, %if.then41 ]
  %cmp.i56 = icmp slt i32 %11, 1
  br i1 %cmp.i56, label %if.end58, label %if.then55

if.then55:                                        ; preds = %if.end52
  call void @ulist_deleteList_75(ptr noundef %call9)
  br label %if.end58

if.end58:                                         ; preds = %if.then8, %if.then55, %if.end52, %if.end
  %values.0 = phi ptr [ null, %if.then55 ], [ %call9, %if.end52 ], [ %call9, %if.then8 ], [ null, %if.end ]
  call void @ures_close_75(ptr noundef %order.0)
  call void @ures_close_75(ptr noundef %call1)
  %12 = load i32, ptr %status, align 4
  %cmp.i58 = icmp sgt i32 %12, 0
  %cmp61 = icmp eq ptr %values.0, null
  %or.cond2 = select i1 %cmp.i58, i1 true, i1 %cmp61
  br i1 %or.cond2, label %return, label %if.end63

if.end63:                                         ; preds = %if.end58
  %call64 = call noalias dereferenceable_or_null(56) ptr @uprv_malloc_75(i64 noundef 56) #12
  %cmp65 = icmp eq ptr %call64, null
  br i1 %cmp65, label %if.then66, label %if.end67

if.then66:                                        ; preds = %if.end63
  store i32 7, ptr %status, align 4
  call void @ulist_deleteList_75(ptr noundef nonnull %values.0)
  br label %return

if.end67:                                         ; preds = %if.end63
  call void @ulist_resetList_75(ptr noundef nonnull %values.0)
  call void @llvm.memcpy.p0.p0.i64(ptr noundef nonnull align 8 dereferenceable(56) %call64, ptr noundef nonnull align 8 dereferenceable(56) @_ZL20defaultKeywordValues, i64 56, i1 false)
  %context = getelementptr inbounds i8, ptr %call64, i64 8
  store ptr %values.0, ptr %context, align 8
  br label %return

return:                                           ; preds = %if.end58, %if.end67, %if.then66
  %retval.0 = phi ptr [ null, %if.then66 ], [ %call64, %if.end67 ], [ null, %if.end58 ]
  ret ptr %retval.0
}